target datalayout = "e-m:e-p270:32:32-p271:32:32-p272:64:64-i64:64-i128:128-f80:128-n8:16:32:64-S128"
target triple = "x86_64-pc-linux-gnu"

%struct.Kit_DsdObj_t_ = type { i32, [0 x i16] }
%struct.Kit_DsdNtk_t_ = type { i16, i16, i16, i16, ptr, ptr, ptr }
%struct.Vec_Int_t_ = type { i32, i32, ptr }

; Function Attrs: inlinehint nounwind uwtable
define internal void @Vec_IntGrow(ptr noundef %0, i32 noundef %1) #2 {
  %3 = alloca ptr, align 8
  %4 = alloca i32, align 4
  store ptr %0, ptr %3, align 8, !tbaa !10
  store i32 %1, ptr %4, align 4, !tbaa !8
  %5 = load ptr, ptr %3, align 8, !tbaa !10
  %6 = getelementptr inbounds nuw %struct.Vec_Int_t_, ptr %5, i32 0, i32 0
  %7 = load i32, ptr %6, align 8, !tbaa !28
  %8 = load i32, ptr %4, align 4, !tbaa !8
  %9 = icmp sge i32 %7, %8
  br i1 %9, label %10, label %11

10:                                               ; preds = %2
  br label %36

11:                                               ; preds = %2
  %12 = load ptr, ptr %3, align 8, !tbaa !10
  %13 = getelementptr inbounds nuw %struct.Vec_Int_t_, ptr %12, i32 0, i32 2
  %14 = load ptr, ptr %13, align 8, !tbaa !29
  %15 = icmp ne ptr %14, null
  br i1 %15, label %16, label %24

16:                                               ; preds = %11
  %17 = load ptr, ptr %3, align 8, !tbaa !10
  %18 = getelementptr inbounds nuw %struct.Vec_Int_t_, ptr %17, i32 0, i32 2
  %19 = load ptr, ptr %18, align 8, !tbaa !29
  %20 = load i32, ptr %4, align 4, !tbaa !8
  %21 = sext i32 %20 to i64
  %22 = mul i64 4, %21
  %23 = call ptr @realloc(ptr noundef %19, i64 noundef %22) #8
  br label %29

24:                                               ; preds = %11
  %25 = load i32, ptr %4, align 4, !tbaa !8
  %26 = sext i32 %25 to i64
  %27 = mul i64 4, %26
  %28 = call noalias ptr @malloc(i64 noundef %27) #9
  br label %29

29:                                               ; preds = %24, %16
  %30 = phi ptr [ %23, %16 ], [ %28, %24 ]
  %31 = load ptr, ptr %3, align 8, !tbaa !10
  %32 = getelementptr inbounds nuw %struct.Vec_Int_t_, ptr %31, i32 0, i32 2
  store ptr %30, ptr %32, align 8, !tbaa !29
  %33 = load i32, ptr %4, align 4, !tbaa !8
  %34 = load ptr, ptr %3, align 8, !tbaa !10
  %35 = getelementptr inbounds nuw %struct.Vec_Int_t_, ptr %34, i32 0, i32 0
  store i32 %33, ptr %35, align 8, !tbaa !28
  br label %36

36:                                               ; preds = %29, %10
  ret void
}

; Function Attrs: inlinehint nounwind uwtable
define internal void @Vec_IntPush(ptr noundef %0, i32 noundef %1) #2 {
  %3 = alloca ptr, align 8
  %4 = alloca i32, align 4
  store ptr %0, ptr %3, align 8, !tbaa !10
  store i32 %1, ptr %4, align 4, !tbaa !8
  %5 = load ptr, ptr %3, align 8, !tbaa !10
  %6 = getelementptr inbounds nuw %struct.Vec_Int_t_, ptr %5, i32 0, i32 1
  %7 = load i32, ptr %6, align 4, !tbaa !26
  %8 = load ptr, ptr %3, align 8, !tbaa !10
  %9 = getelementptr inbounds nuw %struct.Vec_Int_t_, ptr %8, i32 0, i32 0
  %10 = load i32, ptr %9, align 8, !tbaa !28
  %11 = icmp eq i32 %7, %10
  br i1 %11, label %12, label %26

12:                                               ; preds = %2
  %13 = load ptr, ptr %3, align 8, !tbaa !10
  %14 = getelementptr inbounds nuw %struct.Vec_Int_t_, ptr %13, i32 0, i32 0
  %15 = load i32, ptr %14, align 8, !tbaa !28
  %16 = icmp slt i32 %15, 16
  br i1 %16, label %17, label %19

17:                                               ; preds = %12
  %18 = load ptr, ptr %3, align 8, !tbaa !10
  call void @Vec_IntGrow(ptr noundef %18, i32 noundef 16)
  br label %25

19:                                               ; preds = %12
  %20 = load ptr, ptr %3, align 8, !tbaa !10
  %21 = load ptr, ptr %3, align 8, !tbaa !10
  %22 = getelementptr inbounds nuw %struct.Vec_Int_t_, ptr %21, i32 0, i32 0
  %23 = load i32, ptr %22, align 8, !tbaa !28
  %24 = mul nsw i32 2, %23
  call void @Vec_IntGrow(ptr noundef %20, i32 noundef %24)
  br label %25

25:                                               ; preds = %19, %17
  br label %26

26:                                               ; preds = %25, %2
  %27 = load i32, ptr %4, align 4, !tbaa !8
  %28 = load ptr, ptr %3, align 8, !tbaa !10
  %29 = getelementptr inbounds nuw %struct.Vec_Int_t_, ptr %28, i32 0, i32 2
  %30 = load ptr, ptr %29, align 8, !tbaa !29
  %31 = load ptr, ptr %3, align 8, !tbaa !10
  %32 = getelementptr inbounds nuw %struct.Vec_Int_t_, ptr %31, i32 0, i32 1
  %33 = load i32, ptr %32, align 4, !tbaa !26
  %34 = add nsw i32 %33, 1
  store i32 %34, ptr %32, align 4, !tbaa !26
  %35 = sext i32 %33 to i64
  %36 = getelementptr inbounds i32, ptr %30, i64 %35
  store i32 %27, ptr %36, align 4, !tbaa !8
  ret void
}

; Function Attrs: inlinehint nounwind uwtable
define internal ptr @Kit_DsdNtkObj(ptr noundef %0, i32 noundef %1) #2 {
  %3 = alloca ptr, align 8
  %4 = alloca i32, align 4
  store ptr %0, ptr %3, align 8, !tbaa !3
  store i32 %1, ptr %4, align 4, !tbaa !8
  %5 = load i32, ptr %4, align 4, !tbaa !8
  %6 = load ptr, ptr %3, align 8, !tbaa !3
  %7 = getelementptr inbounds nuw %struct.Kit_DsdNtk_t_, ptr %6, i32 0, i32 0
  %8 = load i16, ptr %7, align 8, !tbaa !21
  %9 = zext i16 %8 to i32
  %10 = icmp slt i32 %5, %9
  br i1 %10, label %11, label %12

11:                                               ; preds = %2
  br label %25

12:                                               ; preds = %2
  %13 = load ptr, ptr %3, align 8, !tbaa !3
  %14 = getelementptr inbounds nuw %struct.Kit_DsdNtk_t_, ptr %13, i32 0, i32 6
  %15 = load ptr, ptr %14, align 8, !tbaa !25
  %16 = load i32, ptr %4, align 4, !tbaa !8
  %17 = load ptr, ptr %3, align 8, !tbaa !3
  %18 = getelementptr inbounds nuw %struct.Kit_DsdNtk_t_, ptr %17, i32 0, i32 0
  %19 = load i16, ptr %18, align 8, !tbaa !21
  %20 = zext i16 %19 to i32
  %21 = sub nsw i32 %16, %20
  %22 = sext i32 %21 to i64
  %23 = getelementptr inbounds ptr, ptr %15, i64 %22
  %24 = load ptr, ptr %23, align 8, !tbaa !12
  br label %25

25:                                               ; preds = %12, %11
  %26 = phi ptr [ null, %11 ], [ %24, %12 ]
  ret ptr %26
}

; Function Attrs: inlinehint nounwind uwtable
define internal i32 @Abc_Lit2Var(i32 noundef %0) #2 {
  %2 = alloca i32, align 4
  store i32 %0, ptr %2, align 4, !tbaa !8
  %3 = load i32, ptr %2, align 4, !tbaa !8
  %4 = ashr i32 %3, 1
  ret i32 %4
}

; Function Attrs: nounwind uwtable
define i32 @Lpk_ComputeSets_rec(ptr noundef %0, i32 noundef %1, ptr noundef %2) #0 {
  %4 = alloca i32, align 4
  %5 = alloca ptr, align 8
  %6 = alloca i32, align 4
  %7 = alloca ptr, align 8
  %8 = alloca i32, align 4
  %9 = alloca i32, align 4
  %10 = alloca i32, align 4
  %11 = alloca i32, align 4
  %12 = alloca ptr, align 8
  %13 = alloca i32, align 4
  %14 = alloca [16 x i32], align 16
  %15 = alloca i32, align 4
  %16 = alloca i32, align 4
  store ptr %0, ptr %5, align 8, !tbaa !3
  store i32 %1, ptr %6, align 4, !tbaa !8
  store ptr %2, ptr %7, align 8, !tbaa !10
  call void @llvm.lifetime.start.p0(i64 4, ptr %8) #7
  call void @llvm.lifetime.start.p0(i64 4, ptr %9) #7
  call void @llvm.lifetime.start.p0(i64 4, ptr %10) #7
  call void @llvm.lifetime.start.p0(i64 4, ptr %11) #7
  call void @llvm.lifetime.start.p0(i64 8, ptr %12) #7
  %17 = load ptr, ptr %5, align 8, !tbaa !3
  %18 = load i32, ptr %6, align 4, !tbaa !8
  %19 = call i32 @Abc_Lit2Var(i32 noundef %18)
  %20 = call ptr @Kit_DsdNtkObj(ptr noundef %17, i32 noundef %19)
  store ptr %20, ptr %12, align 8, !tbaa !12
  %21 = load ptr, ptr %12, align 8, !tbaa !12
  %22 = icmp eq ptr %21, null
  br i1 %22, label %23, label %27

23:                                               ; preds = %3
  %24 = load i32, ptr %6, align 4, !tbaa !8
  %25 = call i32 @Abc_Lit2Var(i32 noundef %24)
  %26 = shl i32 1, %25
  store i32 %26, ptr %4, align 4
  store i32 1, ptr %13, align 4
  br label %147

27:                                               ; preds = %3
  %28 = load ptr, ptr %12, align 8, !tbaa !12
  %29 = load i32, ptr %28, align 4
  %30 = lshr i32 %29, 6
  %31 = and i32 %30, 7
  %32 = icmp eq i32 %31, 3
  br i1 %32, label %39, label %33

33:                                               ; preds = %27
  %34 = load ptr, ptr %12, align 8, !tbaa !12
  %35 = load i32, ptr %34, align 4
  %36 = lshr i32 %35, 6
  %37 = and i32 %36, 7
  %38 = icmp eq i32 %37, 4
  br i1 %38, label %39, label %115

39:                                               ; preds = %33, %27
  call void @llvm.lifetime.start.p0(i64 64, ptr %14) #7
  call void @llvm.lifetime.start.p0(i64 4, ptr %15) #7
  call void @llvm.lifetime.start.p0(i64 4, ptr %16) #7
  store i32 0, ptr %10, align 4, !tbaa !8
  store i32 0, ptr %8, align 4, !tbaa !8
  br label %40

40:                                               ; preds = %70, %39
  %41 = load i32, ptr %8, align 4, !tbaa !8
  %42 = load ptr, ptr %12, align 8, !tbaa !12
  %43 = load i32, ptr %42, align 4
  %44 = lshr i32 %43, 26
  %45 = icmp ult i32 %41, %44
  br i1 %45, label %46, label %54

46:                                               ; preds = %40
  %47 = load ptr, ptr %12, align 8, !tbaa !12
  %48 = getelementptr inbounds nuw %struct.Kit_DsdObj_t_, ptr %47, i32 0, i32 1
  %49 = load i32, ptr %8, align 4, !tbaa !8
  %50 = zext i32 %49 to i64
  %51 = getelementptr inbounds nuw [0 x i16], ptr %48, i64 0, i64 %50
  %52 = load i16, ptr %51, align 2, !tbaa !14
  %53 = zext i16 %52 to i32
  store i32 %53, ptr %9, align 4, !tbaa !8
  br label %54

54:                                               ; preds = %46, %40
  %55 = phi i1 [ false, %40 ], [ true, %46 ]
  br i1 %55, label %56, label %73

56:                                               ; preds = %54
  %57 = load ptr, ptr %5, align 8, !tbaa !3
  %58 = load i32, ptr %9, align 4, !tbaa !8
  %59 = load ptr, ptr %7, align 8, !tbaa !10
  %60 = call i32 @Lpk_ComputeSets_rec(ptr noundef %57, i32 noundef %58, ptr noundef %59)
  %61 = load i32, ptr %8, align 4, !tbaa !8
  %62 = zext i32 %61 to i64
  %63 = getelementptr inbounds nuw [16 x i32], ptr %14, i64 0, i64 %62
  store i32 %60, ptr %63, align 4, !tbaa !8
  %64 = load i32, ptr %8, align 4, !tbaa !8
  %65 = zext i32 %64 to i64
  %66 = getelementptr inbounds nuw [16 x i32], ptr %14, i64 0, i64 %65
  %67 = load i32, ptr %66, align 4, !tbaa !8
  %68 = load i32, ptr %10, align 4, !tbaa !8
  %69 = or i32 %68, %67
  store i32 %69, ptr %10, align 4, !tbaa !8
  br label %70

70:                                               ; preds = %56
  %71 = load i32, ptr %8, align 4, !tbaa !8
  %72 = add i32 %71, 1
  store i32 %72, ptr %8, align 4, !tbaa !8
  br label %40, !llvm.loop !16

73:                                               ; preds = %54
  %74 = load ptr, ptr %12, align 8, !tbaa !12
  %75 = load i32, ptr %74, align 4
  %76 = lshr i32 %75, 26
  %77 = shl i32 1, %76
  %78 = sub nsw i32 %77, 1
  store i32 %78, ptr %15, align 4, !tbaa !8
  store i32 1, ptr %16, align 4, !tbaa !8
  br label %79

79:                                               ; preds = %110, %73
  %80 = load i32, ptr %16, align 4, !tbaa !8
  %81 = load i32, ptr %15, align 4, !tbaa !8
  %82 = icmp ult i32 %80, %81
  br i1 %82, label %83, label %113

83:                                               ; preds = %79
  store i32 0, ptr %11, align 4, !tbaa !8
  store i32 0, ptr %8, align 4, !tbaa !8
  br label %84

84:                                               ; preds = %104, %83
  %85 = load i32, ptr %8, align 4, !tbaa !8
  %86 = load ptr, ptr %12, align 8, !tbaa !12
  %87 = load i32, ptr %86, align 4
  %88 = lshr i32 %87, 26
  %89 = icmp ult i32 %85, %88
  br i1 %89, label %90, label %107

90:                                               ; preds = %84
  %91 = load i32, ptr %16, align 4, !tbaa !8
  %92 = load i32, ptr %8, align 4, !tbaa !8
  %93 = shl i32 1, %92
  %94 = and i32 %91, %93
  %95 = icmp ne i32 %94, 0
  br i1 %95, label %96, label %103

96:                                               ; preds = %90
  %97 = load i32, ptr %8, align 4, !tbaa !8
  %98 = zext i32 %97 to i64
  %99 = getelementptr inbounds nuw [16 x i32], ptr %14, i64 0, i64 %98
  %100 = load i32, ptr %99, align 4, !tbaa !8
  %101 = load i32, ptr %11, align 4, !tbaa !8
  %102 = or i32 %101, %100
  store i32 %102, ptr %11, align 4, !tbaa !8
  br label %103

103:                                              ; preds = %96, %90
  br label %104

104:                                              ; preds = %103
  %105 = load i32, ptr %8, align 4, !tbaa !8
  %106 = add i32 %105, 1
  store i32 %106, ptr %8, align 4, !tbaa !8
  br label %84, !llvm.loop !18

107:                                              ; preds = %84
  %108 = load ptr, ptr %7, align 8, !tbaa !10
  %109 = load i32, ptr %11, align 4, !tbaa !8
  call void @Vec_IntPush(ptr noundef %108, i32 noundef %109)
  br label %110

110:                                              ; preds = %107
  %111 = load i32, ptr %16, align 4, !tbaa !8
  %112 = add i32 %111, 1
  store i32 %112, ptr %16, align 4, !tbaa !8
  br label %79, !llvm.loop !19

113:                                              ; preds = %79
  %114 = load i32, ptr %10, align 4, !tbaa !8
  store i32 %114, ptr %4, align 4
  store i32 1, ptr %13, align 4
  call void @llvm.lifetime.end.p0(i64 4, ptr %16) #7
  call void @llvm.lifetime.end.p0(i64 4, ptr %15) #7
  call void @llvm.lifetime.end.p0(i64 64, ptr %14) #7
  br label %147

115:                                              ; preds = %33
  store i32 0, ptr %10, align 4, !tbaa !8
  store i32 0, ptr %8, align 4, !tbaa !8
  br label %116

116:                                              ; preds = %142, %115
  %117 = load i32, ptr %8, align 4, !tbaa !8
  %118 = load ptr, ptr %12, align 8, !tbaa !12
  %119 = load i32, ptr %118, align 4
  %120 = lshr i32 %119, 26
  %121 = icmp ult i32 %117, %120
  br i1 %121, label %122, label %130

122:                                              ; preds = %116
  %123 = load ptr, ptr %12, align 8, !tbaa !12
  %124 = getelementptr inbounds nuw %struct.Kit_DsdObj_t_, ptr %123, i32 0, i32 1
  %125 = load i32, ptr %8, align 4, !tbaa !8
  %126 = zext i32 %125 to i64
  %127 = getelementptr inbounds nuw [0 x i16], ptr %124, i64 0, i64 %126
  %128 = load i16, ptr %127, align 2, !tbaa !14
  %129 = zext i16 %128 to i32
  store i32 %129, ptr %9, align 4, !tbaa !8
  br label %130

130:                                              ; preds = %122, %116
  %131 = phi i1 [ false, %116 ], [ true, %122 ]
  br i1 %131, label %132, label %145

132:                                              ; preds = %130
  %133 = load ptr, ptr %5, align 8, !tbaa !3
  %134 = load i32, ptr %9, align 4, !tbaa !8
  %135 = load ptr, ptr %7, align 8, !tbaa !10
  %136 = call i32 @Lpk_ComputeSets_rec(ptr noundef %133, i32 noundef %134, ptr noundef %135)
  store i32 %136, ptr %11, align 4, !tbaa !8
  %137 = load i32, ptr %11, align 4, !tbaa !8
  %138 = load i32, ptr %10, align 4, !tbaa !8
  %139 = or i32 %138, %137
  store i32 %139, ptr %10, align 4, !tbaa !8
  %140 = load ptr, ptr %7, align 8, !tbaa !10
  %141 = load i32, ptr %11, align 4, !tbaa !8
  call void @Vec_IntPush(ptr noundef %140, i32 noundef %141)
  br label %142

142:                                              ; preds = %132
  %143 = load i32, ptr %8, align 4, !tbaa !8
  %144 = add i32 %143, 1
  store i32 %144, ptr %8, align 4, !tbaa !8
  br label %116, !llvm.loop !20

145:                                              ; preds = %130
  %146 = load i32, ptr %10, align 4, !tbaa !8
  store i32 %146, ptr %4, align 4
  store i32 1, ptr %13, align 4
  br label %147

147:                                              ; preds = %145, %113, %23
  call void @llvm.lifetime.end.p0(i64 8, ptr %12) #7
  call void @llvm.lifetime.end.p0(i64 4, ptr %11) #7
  call void @llvm.lifetime.end.p0(i64 4, ptr %10) #7
  call void @llvm.lifetime.end.p0(i64 4, ptr %9) #7
  call void @llvm.lifetime.end.p0(i64 4, ptr %8) #7
  %148 = load i32, ptr %4, align 4
  ret i32 %148
}