; Function Attrs: nounwind uwtable
define i32 @Lpk_ComputeSets_rec(ptr noundef %0, i32 noundef %1, ptr noundef %2) local_unnamed_addr #0 {
  %4 = alloca [16 x i32], align 16
  %5 = ashr i32 %1, 1
  %6 = load i16, ptr %0, align 8, !tbaa !3
  %7 = zext i16 %6 to i32
  %8 = icmp slt i32 %5, %7
  br i1 %8, label %Kit_DsdNtkObj.exit.thread, label %Kit_DsdNtkObj.exit

Kit_DsdNtkObj.exit:                               ; preds = %3
  %9 = getelementptr inbounds nuw i8, ptr %0, i64 24
  %10 = load ptr, ptr %9, align 8, !tbaa !11
  %11 = sub nsw i32 %5, %7
  %12 = sext i32 %11 to i64
  %13 = getelementptr inbounds ptr, ptr %10, i64 %12
  %14 = load ptr, ptr %13, align 8, !tbaa !12
  %15 = icmp eq ptr %14, null
  br i1 %15, label %Kit_DsdNtkObj.exit.thread, label %17

Kit_DsdNtkObj.exit.thread:                        ; preds = %3, %Kit_DsdNtkObj.exit
  %16 = shl nuw i32 1, %5
  br label %.critedge2

17:                                               ; preds = %Kit_DsdNtkObj.exit
  %18 = load i32, ptr %14, align 4
  %19 = lshr i32 %18, 6
  %20 = and i32 %19, 7
  %.off = add nsw i32 %20, -3
  %switch = icmp ult i32 %.off, 2
  br i1 %switch, label %23, label %.preheader62

.preheader62:                                     ; preds = %17
  %.not76 = icmp ult i32 %18, 67108864
  br i1 %.not76, label %.critedge2, label %.lr.ph

.lr.ph:                                           ; preds = %.preheader62
  %21 = getelementptr inbounds nuw i8, ptr %14, i64 4
  %22 = getelementptr inbounds nuw i8, ptr %2, i64 4
  %.phi.trans.insert.i56 = getelementptr inbounds nuw i8, ptr %2, i64 8
  br label %79

23:                                               ; preds = %17
  call void @llvm.lifetime.start.p0(i64 64, ptr nonnull %4) #12
  %24 = lshr i32 %18, 26
  %.not77 = icmp ult i32 %18, 67108864
  br i1 %.not77, label %.critedge, label %.lr.ph67

.lr.ph67:                                         ; preds = %23
  %25 = getelementptr inbounds nuw i8, ptr %14, i64 4
  br label %26

26:                                               ; preds = %.lr.ph67, %26
  %indvars.iv83 = phi i64 [ 0, %.lr.ph67 ], [ %indvars.iv.next84, %26 ]
  %.05065 = phi i32 [ 0, %.lr.ph67 ], [ %32, %26 ]
  %27 = getelementptr inbounds nuw [0 x i16], ptr %25, i64 0, i64 %indvars.iv83
  %28 = load i16, ptr %27, align 2, !tbaa !14
  %29 = zext i16 %28 to i32
  %30 = tail call i32 @Lpk_ComputeSets_rec(ptr noundef nonnull %0, i32 noundef %29, ptr noundef %2)
  %31 = getelementptr inbounds nuw [16 x i32], ptr %4, i64 0, i64 %indvars.iv83
  store i32 %30, ptr %31, align 4, !tbaa !15
  %32 = or i32 %30, %.05065
  %indvars.iv.next84 = add nuw nsw i64 %indvars.iv83, 1
  %33 = load i32, ptr %14, align 4
  %34 = lshr i32 %33, 26
  %35 = zext nneg i32 %34 to i64
  %36 = icmp samesign ult i64 %indvars.iv.next84, %35
  br i1 %36, label %26, label %.critedge, !llvm.loop !17

.critedge:                                        ; preds = %26, %23
  %.050.lcssa = phi i32 [ 0, %23 ], [ %32, %26 ]
  %.lcssa = phi i32 [ %24, %23 ], [ %34, %26 ]
  %notmask = shl nsw i32 -1, %.lcssa
  %37 = icmp samesign ult i32 %notmask, -2
  br i1 %37, label %.preheader.lr.ph, label %._crit_edge75

.preheader.lr.ph:                                 ; preds = %.critedge
  %38 = getelementptr inbounds nuw i8, ptr %2, i64 4
  %.phi.trans.insert.i = getelementptr inbounds nuw i8, ptr %2, i64 8
  br label %.preheader

.preheader:                                       ; preds = %.preheader.lr.ph, %Vec_IntPush.exit
  %.074 = phi i32 [ 1, %.preheader.lr.ph ], [ %77, %Vec_IntPush.exit ]
  %39 = load i32, ptr %14, align 4
  %.not78 = icmp ult i32 %39, 67108864
  br i1 %.not78, label %._crit_edge, label %.lr.ph72.preheader

.lr.ph72.preheader:                               ; preds = %.preheader
  %40 = lshr i32 %39, 26
  %wide.trip.count = zext nneg i32 %40 to i64
  br label %.lr.ph72

.lr.ph72:                                         ; preds = %.lr.ph72.preheader, %48
  %indvars.iv86 = phi i64 [ 0, %.lr.ph72.preheader ], [ %indvars.iv.next87, %48 ]
  %.04870 = phi i32 [ 0, %.lr.ph72.preheader ], [ %.149, %48 ]
  %41 = trunc nuw nsw i64 %indvars.iv86 to i32
  %42 = shl nuw i32 1, %41
  %43 = and i32 %42, %.074
  %.not = icmp eq i32 %43, 0
  br i1 %.not, label %48, label %44

44:                                               ; preds = %.lr.ph72
  %45 = getelementptr inbounds nuw [16 x i32], ptr %4, i64 0, i64 %indvars.iv86
  %46 = load i32, ptr %45, align 4, !tbaa !15
  %47 = or i32 %46, %.04870
  br label %48

48:                                               ; preds = %.lr.ph72, %44
  %.149 = phi i32 [ %47, %44 ], [ %.04870, %.lr.ph72 ]
  %indvars.iv.next87 = add nuw nsw i64 %indvars.iv86, 1
  %exitcond.not = icmp eq i64 %indvars.iv.next87, %wide.trip.count
  br i1 %exitcond.not, label %._crit_edge, label %.lr.ph72, !llvm.loop !19

._crit_edge:                                      ; preds = %48, %.preheader
  %.048.lcssa = phi i32 [ 0, %.preheader ], [ %.149, %48 ]
  %49 = load i32, ptr %38, align 4, !tbaa !20
  %50 = load i32, ptr %2, align 8, !tbaa !22
  %51 = icmp eq i32 %49, %50
  br i1 %51, label %52, label %.Vec_IntGrow.exit10_crit_edge.i

.Vec_IntGrow.exit10_crit_edge.i:                  ; preds = %._crit_edge
  %.pre.i = load ptr, ptr %.phi.trans.insert.i, align 8, !tbaa !23
  br label %Vec_IntPush.exit

52:                                               ; preds = %._crit_edge
  %53 = icmp slt i32 %49, 16
  br i1 %53, label %54, label %61

54:                                               ; preds = %52
  %55 = load ptr, ptr %.phi.trans.insert.i, align 8, !tbaa !23
  %.not9.i.i = icmp eq ptr %55, null
  br i1 %.not9.i.i, label %58, label %56

56:                                               ; preds = %54
  %57 = tail call dereferenceable_or_null(64) ptr @realloc(ptr noundef nonnull %55, i64 noundef 64) #13
  br label %Vec_IntGrow.exit.i

58:                                               ; preds = %54
  %59 = tail call noalias dereferenceable_or_null(64) ptr @malloc(i64 noundef 64) #14
  br label %Vec_IntGrow.exit.i

Vec_IntGrow.exit.i:                               ; preds = %58, %56
  %60 = phi ptr [ %57, %56 ], [ %59, %58 ]
  store ptr %60, ptr %.phi.trans.insert.i, align 8, !tbaa !23
  store i32 16, ptr %2, align 8, !tbaa !22
  br label %Vec_IntPush.exit

61:                                               ; preds = %52
  %62 = shl nuw nsw i32 %49, 1
  %63 = load ptr, ptr %.phi.trans.insert.i, align 8, !tbaa !23
  %.not9.i9.i = icmp eq ptr %63, null
  %64 = zext nneg i32 %62 to i64
  %65 = shl nuw nsw i64 %64, 2
  br i1 %.not9.i9.i, label %68, label %66

66:                                               ; preds = %61
  %67 = tail call ptr @realloc(ptr noundef nonnull %63, i64 noundef %65) #13
  br label %70

68:                                               ; preds = %61
  %69 = tail call noalias ptr @malloc(i64 noundef %65) #14
  br label %70

70:                                               ; preds = %68, %66
  %71 = phi ptr [ %67, %66 ], [ %69, %68 ]
  store ptr %71, ptr %.phi.trans.insert.i, align 8, !tbaa !23
  store i32 %62, ptr %2, align 8, !tbaa !22
  br label %Vec_IntPush.exit

Vec_IntPush.exit:                                 ; preds = %.Vec_IntGrow.exit10_crit_edge.i, %Vec_IntGrow.exit.i, %70
  %72 = phi ptr [ %.pre.i, %.Vec_IntGrow.exit10_crit_edge.i ], [ %71, %70 ], [ %60, %Vec_IntGrow.exit.i ]
  %73 = load i32, ptr %38, align 4, !tbaa !20
  %74 = add nsw i32 %73, 1
  store i32 %74, ptr %38, align 4, !tbaa !20
  %75 = sext i32 %73 to i64
  %76 = getelementptr inbounds i32, ptr %72, i64 %75
  store i32 %.048.lcssa, ptr %76, align 4, !tbaa !15
  %77 = add nuw nsw i32 %.074, 1
  %78 = xor i32 %notmask, %77
  %exitcond89.not = icmp eq i32 %78, -1
  br i1 %exitcond89.not, label %._crit_edge75, label %.preheader, !llvm.loop !24

._crit_edge75:                                    ; preds = %Vec_IntPush.exit, %.critedge
  call void @llvm.lifetime.end.p0(i64 64, ptr nonnull %4) #12
  br label %.critedge2

79:                                               ; preds = %.lr.ph, %Vec_IntPush.exit61
  %indvars.iv = phi i64 [ 0, %.lr.ph ], [ %indvars.iv.next, %Vec_IntPush.exit61 ]
  %.15163 = phi i32 [ 0, %.lr.ph ], [ %84, %Vec_IntPush.exit61 ]
  %80 = getelementptr inbounds nuw [0 x i16], ptr %21, i64 0, i64 %indvars.iv
  %81 = load i16, ptr %80, align 2, !tbaa !14
  %82 = zext i16 %81 to i32
  %83 = tail call i32 @Lpk_ComputeSets_rec(ptr noundef nonnull %0, i32 noundef %82, ptr noundef %2)
  %84 = or i32 %83, %.15163
  %85 = load i32, ptr %22, align 4, !tbaa !20
  %86 = load i32, ptr %2, align 8, !tbaa !22
  %87 = icmp eq i32 %85, %86
  br i1 %87, label %88, label %.Vec_IntGrow.exit10_crit_edge.i55

.Vec_IntGrow.exit10_crit_edge.i55:                ; preds = %79
  %.pre.i57 = load ptr, ptr %.phi.trans.insert.i56, align 8, !tbaa !23
  br label %Vec_IntPush.exit61

88:                                               ; preds = %79
  %89 = icmp slt i32 %85, 16
  br i1 %89, label %90, label %97

90:                                               ; preds = %88
  %91 = load ptr, ptr %.phi.trans.insert.i56, align 8, !tbaa !23
  %.not9.i.i59 = icmp eq ptr %91, null
  br i1 %.not9.i.i59, label %94, label %92

92:                                               ; preds = %90
  %93 = tail call dereferenceable_or_null(64) ptr @realloc(ptr noundef nonnull %91, i64 noundef 64) #13
  br label %Vec_IntGrow.exit.i60

94:                                               ; preds = %90
  %95 = tail call noalias dereferenceable_or_null(64) ptr @malloc(i64 noundef 64) #14
  br label %Vec_IntGrow.exit.i60

Vec_IntGrow.exit.i60:                             ; preds = %94, %92
  %96 = phi ptr [ %93, %92 ], [ %95, %94 ]
  store ptr %96, ptr %.phi.trans.insert.i56, align 8, !tbaa !23
  store i32 16, ptr %2, align 8, !tbaa !22
  br label %Vec_IntPush.exit61

97:                                               ; preds = %88
  %98 = shl nuw nsw i32 %85, 1
  %99 = load ptr, ptr %.phi.trans.insert.i56, align 8, !tbaa !23
  %.not9.i9.i58 = icmp eq ptr %99, null
  %100 = zext nneg i32 %98 to i64
  %101 = shl nuw nsw i64 %100, 2
  br i1 %.not9.i9.i58, label %104, label %102

102:                                              ; preds = %97
  %103 = tail call ptr @realloc(ptr noundef nonnull %99, i64 noundef %101) #13
  br label %106

104:                                              ; preds = %97
  %105 = tail call noalias ptr @malloc(i64 noundef %101) #14
  br label %106

106:                                              ; preds = %104, %102
  %107 = phi ptr [ %103, %102 ], [ %105, %104 ]
  store ptr %107, ptr %.phi.trans.insert.i56, align 8, !tbaa !23
  store i32 %98, ptr %2, align 8, !tbaa !22
  br label %Vec_IntPush.exit61

Vec_IntPush.exit61:                               ; preds = %.Vec_IntGrow.exit10_crit_edge.i55, %Vec_IntGrow.exit.i60, %106
  %108 = phi ptr [ %.pre.i57, %.Vec_IntGrow.exit10_crit_edge.i55 ], [ %107, %106 ], [ %96, %Vec_IntGrow.exit.i60 ]
  %109 = load i32, ptr %22, align 4, !tbaa !20
  %110 = add nsw i32 %109, 1
  store i32 %110, ptr %22, align 4, !tbaa !20
  %111 = sext i32 %109 to i64
  %112 = getelementptr inbounds i32, ptr %108, i64 %111
  store i32 %83, ptr %112, align 4, !tbaa !15
  %indvars.iv.next = add nuw nsw i64 %indvars.iv, 1
  %113 = load i32, ptr %14, align 4
  %114 = lshr i32 %113, 26
  %115 = zext nneg i32 %114 to i64
  %116 = icmp samesign ult i64 %indvars.iv.next, %115
  br i1 %116, label %79, label %.critedge2, !llvm.loop !25

.critedge2:                                       ; preds = %Vec_IntPush.exit61, %.preheader62, %._crit_edge75, %Kit_DsdNtkObj.exit.thread
  %.046 = phi i32 [ %16, %Kit_DsdNtkObj.exit.thread ], [ %.050.lcssa, %._crit_edge75 ], [ 0, %.preheader62 ], [ %84, %Vec_IntPush.exit61 ]
  ret i32 %.046
}